; Function Attrs: mustprogress uwtable
define void @_ZNK10open_spiel11leduc_poker9LeducGame14ActionToStringB5cxx11Eil(ptr dead_on_unwind noalias writable sret(%"class.std::__cxx11::basic_string") align 8 %0, ptr nocapture nonnull readnone align 8 %1, i32 noundef %2, i64 noundef %3) unnamed_addr #3 align 2 {
  %5 = alloca %"class.absl::debian2::AlphaNum", align 8
  %6 = alloca %"class.absl::debian2::AlphaNum", align 8
  %7 = icmp eq i32 %2, -1
  br i1 %7, label %_ZN4absl7debian28AlphaNumC2EPKc.exit, label %17

_ZN4absl7debian28AlphaNumC2EPKc.exit:             ; preds = %4
  store ptr @.str.66, ptr %5, align 8
  %8 = getelementptr inbounds nuw i8, ptr %5, i64 8
  store i64 15, ptr %8, align 8
  %9 = getelementptr inbounds nuw i8, ptr %6, i64 16
  %10 = call noundef ptr @_ZN4absl7debian216numbers_internal15FastIntToBufferElPc(i64 noundef %3, ptr noundef nonnull %9)
  %11 = ptrtoint ptr %10 to i64
  %12 = ptrtoint ptr %9 to i64
  %13 = sub i64 %11, %12
  store ptr %9, ptr %6, align 8
  %14 = icmp sgt i64 %13, -1
  br i1 %14, label %_ZN4absl7debian28AlphaNumC2El.exit, label %15

15:                                               ; preds = %_ZN4absl7debian28AlphaNumC2EPKc.exit
  call void @llvm.trap()
  unreachable

_ZN4absl7debian28AlphaNumC2El.exit:               ; preds = %_ZN4absl7debian28AlphaNumC2EPKc.exit
  %16 = getelementptr inbounds nuw i8, ptr %6, i64 8
  store i64 %13, ptr %16, align 8
  call void @_ZN4absl7debian26StrCatB5cxx11ERKNS0_8AlphaNumES3_(ptr dead_on_unwind writable sret(%"class.std::__cxx11::basic_string") align 8 %0, ptr noundef nonnull align 8 dereferenceable(48) %5, ptr noundef nonnull align 8 dereferenceable(48) %6)
  br label %18

17:                                               ; preds = %4
  tail call fastcc void @_ZN10open_spiel11leduc_poker12_GLOBAL__N_123StatelessActionToStringB5cxx11El(ptr dead_on_unwind noalias writable align 8 %0, i64 noundef %3)
  br label %18

18:                                               ; preds = %17, %_ZN4absl7debian28AlphaNumC2El.exit
  ret void
}